target datalayout = "e-m:e-p270:32:32-p271:32:32-p272:64:64-i64:64-i128:128-f80:128-n8:16:32:64-S128"
target triple = "x86_64-pc-linux-gnu"

%"struct.std::__detail::_Hash_node_base" = type { ptr }
%"struct.std::__detail::_Prime_rehash_policy" = type { float, i64 }
%"class.Eigen::Matrix" = type { %"class.Eigen::PlainObjectBase" }
%"class.Eigen::PlainObjectBase" = type { %"class.Eigen::DenseStorage" }
%"class.Eigen::DenseStorage" = type { %"struct.Eigen::internal::plain_array" }
%"struct.Eigen::internal::plain_array" = type { [3 x double] }
%"class.open3d::visualization::VisualizerWithVertexSelection" = type { %"class.open3d::visualization::Visualizer", %"class.std::shared_ptr.108", %"class.std::shared_ptr.111", i32, %"class.Eigen::Matrix.114", %"class.std::vector.124", float, %"class.std::shared_ptr.129", %"class.std::shared_ptr.132", %"class.std::shared_ptr", %"class.std::shared_ptr.135", %"class.open3d::visualization::RenderOption", %"class.std::shared_ptr.138", %"class.std::shared_ptr.135", %"class.std::unordered_map.141", %"class.std::unordered_map.141", %"class.std::shared_ptr.138", %"class.std::shared_ptr.135", %"class.std::function.155", %"class.std::function.155", %"class.std::function.155", [8 x i8] }
%"class.open3d::visualization::Visualizer" = type { ptr, ptr, %"class.std::__cxx11::basic_string", %"class.std::shared_ptr.18", %"class.Eigen::Matrix.21", %"class.Eigen::Matrix.21", %"class.std::function", %"class.std::function", %"struct.open3d::visualization::Visualizer::MouseControl", i8, i8, i32, i32, i32, i32, %"class.std::unique_ptr", %"class.std::unique_ptr.33", %"class.std::unordered_set", %"class.std::unordered_set.60", %"class.std::vector", %"class.std::vector.83", %"class.std::unordered_map.88", %"class.std::shared_ptr.102", %"class.std::shared_ptr.105" }
%"class.std::__cxx11::basic_string" = type { %"struct.std::__cxx11::basic_string<char>::_Alloc_hider", i64, %union.anon }
%"struct.std::__cxx11::basic_string<char>::_Alloc_hider" = type { ptr }
%union.anon = type { i64, [8 x i8] }
%"class.std::shared_ptr.18" = type { %"class.std::__shared_ptr.19" }
%"class.std::__shared_ptr.19" = type { ptr, %"class.std::__shared_count" }
%"class.std::__shared_count" = type { ptr }
%"class.Eigen::Matrix.21" = type { %"class.Eigen::PlainObjectBase.22" }
%"class.Eigen::PlainObjectBase.22" = type { %"class.Eigen::DenseStorage.29" }
%"class.Eigen::DenseStorage.29" = type { %"struct.Eigen::internal::plain_array.30" }
%"struct.Eigen::internal::plain_array.30" = type { [2 x i32] }
%"class.std::function" = type { %"class.std::_Function_base", ptr }
%"class.std::_Function_base" = type { %"union.std::_Any_data", ptr }
%"union.std::_Any_data" = type { %"union.std::_Nocopy_types" }
%"union.std::_Nocopy_types" = type { { i64, i64 } }
%"struct.open3d::visualization::Visualizer::MouseControl" = type { i8, i8, i8, i8, i8, i8, double, double }
%"class.std::unique_ptr" = type { %"struct.std::__uniq_ptr_data" }
%"struct.std::__uniq_ptr_data" = type { %"class.std::__uniq_ptr_impl" }
%"class.std::__uniq_ptr_impl" = type { %"class.std::tuple" }
%"class.std::tuple" = type { %"struct.std::_Tuple_impl" }
%"struct.std::_Tuple_impl" = type { %"struct.std::_Head_base.32" }
%"struct.std::_Head_base.32" = type { ptr }
%"class.std::unique_ptr.33" = type { %"struct.std::__uniq_ptr_data.34" }
%"struct.std::__uniq_ptr_data.34" = type { %"class.std::__uniq_ptr_impl.35" }
%"class.std::__uniq_ptr_impl.35" = type { %"class.std::tuple.36" }
%"class.std::tuple.36" = type { %"struct.std::_Tuple_impl.37" }
%"struct.std::_Tuple_impl.37" = type { %"struct.std::_Head_base.40" }
%"struct.std::_Head_base.40" = type { ptr }
%"class.std::unordered_set" = type { %"class.std::_Hashtable.41" }
%"class.std::_Hashtable.41" = type { ptr, i64, %"struct.std::__detail::_Hash_node_base", i64, %"struct.std::__detail::_Prime_rehash_policy", ptr }
%"class.std::unordered_set.60" = type { %"class.std::_Hashtable.61" }
%"class.std::_Hashtable.61" = type { ptr, i64, %"struct.std::__detail::_Hash_node_base", i64, %"struct.std::__detail::_Prime_rehash_policy", ptr }
%"class.std::vector" = type { %"struct.std::_Vector_base" }
%"struct.std::_Vector_base" = type { %"struct.std::_Vector_base<std::shared_ptr<const open3d::geometry::Geometry>, std::allocator<std::shared_ptr<const open3d::geometry::Geometry>>>::_Vector_impl" }
%"struct.std::_Vector_base<std::shared_ptr<const open3d::geometry::Geometry>, std::allocator<std::shared_ptr<const open3d::geometry::Geometry>>>::_Vector_impl" = type { %"struct.std::_Vector_base<std::shared_ptr<const open3d::geometry::Geometry>, std::allocator<std::shared_ptr<const open3d::geometry::Geometry>>>::_Vector_impl_data" }
%"struct.std::_Vector_base<std::shared_ptr<const open3d::geometry::Geometry>, std::allocator<std::shared_ptr<const open3d::geometry::Geometry>>>::_Vector_impl_data" = type { ptr, ptr, ptr }
%"class.std::vector.83" = type { %"struct.std::_Vector_base.84" }
%"struct.std::_Vector_base.84" = type { %"struct.std::_Vector_base<std::shared_ptr<open3d::visualization::glsl::GeometryRenderer>, std::allocator<std::shared_ptr<open3d::visualization::glsl::GeometryRenderer>>>::_Vector_impl" }
%"struct.std::_Vector_base<std::shared_ptr<open3d::visualization::glsl::GeometryRenderer>, std::allocator<std::shared_ptr<open3d::visualization::glsl::GeometryRenderer>>>::_Vector_impl" = type { %"struct.std::_Vector_base<std::shared_ptr<open3d::visualization::glsl::GeometryRenderer>, std::allocator<std::shared_ptr<open3d::visualization::glsl::GeometryRenderer>>>::_Vector_impl_data" }
%"struct.std::_Vector_base<std::shared_ptr<open3d::visualization::glsl::GeometryRenderer>, std::allocator<std::shared_ptr<open3d::visualization::glsl::GeometryRenderer>>>::_Vector_impl_data" = type { ptr, ptr, ptr }
%"class.std::unordered_map.88" = type { %"class.std::_Hashtable.89" }
%"class.std::_Hashtable.89" = type { ptr, i64, %"struct.std::__detail::_Hash_node_base", i64, %"struct.std::__detail::_Prime_rehash_policy", ptr }
%"class.std::shared_ptr.102" = type { %"class.std::__shared_ptr.103" }
%"class.std::__shared_ptr.103" = type { ptr, %"class.std::__shared_count" }
%"class.std::shared_ptr.105" = type { %"class.std::__shared_ptr.106" }
%"class.std::__shared_ptr.106" = type { ptr, %"class.std::__shared_count" }
%"class.std::shared_ptr.108" = type { %"class.std::__shared_ptr.109" }
%"class.std::__shared_ptr.109" = type { ptr, %"class.std::__shared_count" }
%"class.std::shared_ptr.111" = type { %"class.std::__shared_ptr.112" }
%"class.std::__shared_ptr.112" = type { ptr, %"class.std::__shared_count" }
%"class.Eigen::Matrix.114" = type { %"class.Eigen::PlainObjectBase.115" }
%"class.Eigen::PlainObjectBase.115" = type { %"class.Eigen::DenseStorage.122" }
%"class.Eigen::DenseStorage.122" = type { %"struct.Eigen::internal::plain_array.123" }
%"struct.Eigen::internal::plain_array.123" = type { [2 x double] }
%"class.std::vector.124" = type { %"struct.std::_Vector_base.125" }
%"struct.std::_Vector_base.125" = type { %"struct.std::_Vector_base<int, std::allocator<int>>::_Vector_impl" }
%"struct.std::_Vector_base<int, std::allocator<int>>::_Vector_impl" = type { %"struct.std::_Vector_base<int, std::allocator<int>>::_Vector_impl_data" }
%"struct.std::_Vector_base<int, std::allocator<int>>::_Vector_impl_data" = type { ptr, ptr, ptr }
%"class.std::shared_ptr.129" = type { %"class.std::__shared_ptr.130" }
%"class.std::__shared_ptr.130" = type { ptr, %"class.std::__shared_count" }
%"class.std::shared_ptr.132" = type { %"class.std::__shared_ptr.133" }
%"class.std::__shared_ptr.133" = type { ptr, %"class.std::__shared_count" }
%"class.std::shared_ptr" = type { %"class.std::__shared_ptr" }
%"class.std::__shared_ptr" = type { ptr, %"class.std::__shared_count" }
%"class.open3d::visualization::RenderOption" = type <{ %"class.open3d::utility::IJsonConvertible", double, double, double, double, double, double, double, double, %"class.Eigen::Matrix", i32, i32, i8, [7 x i8], [4 x %"class.Eigen::Matrix"], [4 x %"class.Eigen::Matrix"], %"class.Eigen::Matrix", [4 x double], [4 x double], [4 x double], double, i32, i8, [3 x i8], i32, i32, i8, i8, [6 x i8], %"class.Eigen::Matrix", double, i32, i32, i8, [7 x i8] }>
%"class.open3d::utility::IJsonConvertible" = type { ptr }
%"class.std::unordered_map.141" = type { %"class.std::_Hashtable.142" }
%"class.std::_Hashtable.142" = type { ptr, i64, %"struct.std::__detail::_Hash_node_base", i64, %"struct.std::__detail::_Prime_rehash_policy", ptr }
%"class.std::shared_ptr.138" = type { %"class.std::__shared_ptr.139" }
%"class.std::__shared_ptr.139" = type { ptr, %"class.std::__shared_count" }
%"class.std::shared_ptr.135" = type { %"class.std::__shared_ptr.136" }
%"class.std::__shared_ptr.136" = type { ptr, %"class.std::__shared_count" }
%"class.std::function.155" = type { %"class.std::_Function_base", ptr }

; Function Attrs: mustprogress nounwind ssp uwtable
define linkonce_odr noundef ptr @_ZNKSt12__shared_ptrIN6open3d13visualization4glsl24PointCloudPickerRendererELN9__gnu_cxx12_Lock_policyE2EE3getEv(ptr noundef nonnull align 8 dereferenceable(16) %0) #0 comdat align 2 {
  %2 = alloca ptr, align 8
  store ptr %0, ptr %2, align 8, !tbaa !1668
  %3 = load ptr, ptr %2, align 8
  %4 = getelementptr inbounds nuw %"class.std::__shared_ptr.133", ptr %3, i32 0, i32 0
  %5 = load ptr, ptr %4, align 8, !tbaa !1807
  ret ptr %5
}

; Function Attrs: mustprogress nounwind ssp uwtable
define linkonce_odr noundef ptr @_ZNKSt12__shared_ptrIN6open3d13visualization16PointCloudPickerELN9__gnu_cxx12_Lock_policyE2EE3getEv(ptr noundef nonnull align 8 dereferenceable(16) %0) #0 comdat align 2 {
  %2 = alloca ptr, align 8
  store ptr %0, ptr %2, align 8, !tbaa !1662
  %3 = load ptr, ptr %2, align 8
  %4 = getelementptr inbounds nuw %"class.std::__shared_ptr.130", ptr %3, i32 0, i32 0
  %5 = load ptr, ptr %4, align 8, !tbaa !1772
  ret ptr %5
}

; Function Attrs: mustprogress nounwind ssp uwtable
define linkonce_odr noundef ptr @_ZNKSt19__shared_ptr_accessIN6open3d13visualization4glsl24PointCloudPickerRendererELN9__gnu_cxx12_Lock_policyE2ELb0ELb0EE6_M_getEv(ptr noundef nonnull align 1 dereferenceable(1) %0) #0 comdat align 2 {
  %2 = alloca ptr, align 8
  store ptr %0, ptr %2, align 8, !tbaa !1670
  %3 = load ptr, ptr %2, align 8
  %4 = call noundef ptr @_ZNKSt12__shared_ptrIN6open3d13visualization4glsl24PointCloudPickerRendererELN9__gnu_cxx12_Lock_policyE2EE3getEv(ptr noundef nonnull align 8 dereferenceable(16) %3) #8
  ret ptr %4
}

; Function Attrs: mustprogress nounwind ssp uwtable
define linkonce_odr noundef ptr @_ZNKSt19__shared_ptr_accessIN6open3d13visualization16PointCloudPickerELN9__gnu_cxx12_Lock_policyE2ELb0ELb0EE6_M_getEv(ptr noundef nonnull align 1 dereferenceable(1) %0) #0 comdat align 2 {
  %2 = alloca ptr, align 8
  store ptr %0, ptr %2, align 8, !tbaa !1664
  %3 = load ptr, ptr %2, align 8
  %4 = call noundef ptr @_ZNKSt12__shared_ptrIN6open3d13visualization16PointCloudPickerELN9__gnu_cxx12_Lock_policyE2EE3getEv(ptr noundef nonnull align 8 dereferenceable(16) %3) #8
  ret ptr %4
}

; Function Attrs: mustprogress nounwind ssp uwtable
define linkonce_odr noundef ptr @_ZNKSt19__shared_ptr_accessIN6open3d13visualization4glsl24PointCloudPickerRendererELN9__gnu_cxx12_Lock_policyE2ELb0ELb0EEptEv(ptr noundef nonnull align 1 dereferenceable(1) %0) #0 comdat align 2 {
  %2 = alloca ptr, align 8
  store ptr %0, ptr %2, align 8, !tbaa !1670
  %3 = load ptr, ptr %2, align 8
  %4 = call noundef ptr @_ZNKSt19__shared_ptr_accessIN6open3d13visualization4glsl24PointCloudPickerRendererELN9__gnu_cxx12_Lock_policyE2ELb0ELb0EE6_M_getEv(ptr noundef nonnull align 1 dereferenceable(1) %3) #8
  ret ptr %4
}

; Function Attrs: mustprogress nounwind ssp uwtable
define linkonce_odr noundef zeroext i1 @_ZNKSt12__shared_ptrIN6open3d13visualization4glsl24PointCloudPickerRendererELN9__gnu_cxx12_Lock_policyE2EEcvbEv(ptr noundef nonnull align 8 dereferenceable(16) %0) #0 comdat align 2 {
  %2 = alloca ptr, align 8
  store ptr %0, ptr %2, align 8, !tbaa !1668
  %3 = load ptr, ptr %2, align 8
  %4 = getelementptr inbounds nuw %"class.std::__shared_ptr.133", ptr %3, i32 0, i32 0
  %5 = load ptr, ptr %4, align 8, !tbaa !1807
  %6 = icmp ne ptr %5, null
  ret i1 %6
}

; Function Attrs: mustprogress nounwind ssp uwtable
define linkonce_odr noundef ptr @_ZNKSt19__shared_ptr_accessIN6open3d13visualization16PointCloudPickerELN9__gnu_cxx12_Lock_policyE2ELb0ELb0EEptEv(ptr noundef nonnull align 1 dereferenceable(1) %0) #0 comdat align 2 {
  %2 = alloca ptr, align 8
  store ptr %0, ptr %2, align 8, !tbaa !1664
  %3 = load ptr, ptr %2, align 8
  %4 = call noundef ptr @_ZNKSt19__shared_ptr_accessIN6open3d13visualization16PointCloudPickerELN9__gnu_cxx12_Lock_policyE2ELb0ELb0EE6_M_getEv(ptr noundef nonnull align 1 dereferenceable(1) %3) #8
  ret ptr %4
}

; Function Attrs: mustprogress nounwind ssp uwtable
define linkonce_odr noundef zeroext i1 @_ZNKSt12__shared_ptrIN6open3d13visualization16PointCloudPickerELN9__gnu_cxx12_Lock_policyE2EEcvbEv(ptr noundef nonnull align 8 dereferenceable(16) %0) #0 comdat align 2 {
  %2 = alloca ptr, align 8
  store ptr %0, ptr %2, align 8, !tbaa !1662
  %3 = load ptr, ptr %2, align 8
  %4 = getelementptr inbounds nuw %"class.std::__shared_ptr.130", ptr %3, i32 0, i32 0
  %5 = load ptr, ptr %4, align 8, !tbaa !1772
  %6 = icmp ne ptr %5, null
  ret i1 %6
}

; Function Attrs: mustprogress ssp uwtable
define void @_ZN6open3d13visualization29VisualizerWithVertexSelection17InvalidatePickingEv(ptr noundef nonnull align 16 dereferenceable(1384) %0) #1 align 2 {
  %2 = alloca ptr, align 8
  store ptr %0, ptr %2, align 8, !tbaa !4
  %3 = load ptr, ptr %2, align 8
  %4 = getelementptr inbounds nuw %"class.open3d::visualization::VisualizerWithVertexSelection", ptr %3, i32 0, i32 7
  %5 = call noundef zeroext i1 @_ZNKSt12__shared_ptrIN6open3d13visualization16PointCloudPickerELN9__gnu_cxx12_Lock_policyE2EEcvbEv(ptr noundef nonnull align 8 dereferenceable(16) %4) #8
  br i1 %5, label %6, label %13

6:                                                ; preds = %1
  %7 = getelementptr inbounds nuw %"class.open3d::visualization::VisualizerWithVertexSelection", ptr %3, i32 0, i32 7
  %8 = call noundef ptr @_ZNKSt19__shared_ptr_accessIN6open3d13visualization16PointCloudPickerELN9__gnu_cxx12_Lock_policyE2ELb0ELb0EEptEv(ptr noundef nonnull align 1 dereferenceable(1) %7) #8
  %9 = load ptr, ptr %8, align 8, !tbaa !9
  %10 = getelementptr inbounds ptr, ptr %9, i64 2
  %11 = load ptr, ptr %10, align 8
  %12 = call noundef nonnull align 8 dereferenceable(88) ptr %11(ptr noundef nonnull align 8 dereferenceable(88) %8)
  br label %13

13:                                               ; preds = %6, %1
  %14 = getelementptr inbounds nuw %"class.open3d::visualization::VisualizerWithVertexSelection", ptr %3, i32 0, i32 8
  %15 = call noundef zeroext i1 @_ZNKSt12__shared_ptrIN6open3d13visualization4glsl24PointCloudPickerRendererELN9__gnu_cxx12_Lock_policyE2EEcvbEv(ptr noundef nonnull align 8 dereferenceable(16) %14) #8
  br i1 %15, label %16, label %23

16:                                               ; preds = %13
  %17 = getelementptr inbounds nuw %"class.open3d::visualization::VisualizerWithVertexSelection", ptr %3, i32 0, i32 8
  %18 = call noundef ptr @_ZNKSt19__shared_ptr_accessIN6open3d13visualization4glsl24PointCloudPickerRendererELN9__gnu_cxx12_Lock_policyE2ELb0ELb0EEptEv(ptr noundef nonnull align 1 dereferenceable(1) %17) #8
  %19 = load ptr, ptr %18, align 16, !tbaa !9
  %20 = getelementptr inbounds ptr, ptr %19, i64 4
  %21 = load ptr, ptr %20, align 8
  %22 = call noundef zeroext i1 %21(ptr noundef nonnull align 16 dereferenceable(368) %18)
  br label %23

23:                                               ; preds = %16, %13
  ret void
}