; Function Attrs: mustprogress ssp uwtable
define void @_ZN6open3d13visualization29VisualizerWithVertexSelection17InvalidatePickingEv(ptr noundef nonnull readonly align 16 captures(none) dereferenceable(1384) %0) local_unnamed_addr #1 align 2 {
  %2 = getelementptr inbounds nuw i8, ptr %0, i64 544
  %3 = load ptr, ptr %2, align 16, !tbaa !214
  %.not = icmp eq ptr %3, null
  br i1 %.not, label %9, label %4

4:                                                ; preds = %1
  %5 = load ptr, ptr %3, align 8, !tbaa !4
  %6 = getelementptr inbounds nuw i8, ptr %5, i64 16
  %7 = load ptr, ptr %6, align 8
  %8 = tail call noundef nonnull align 8 dereferenceable(88) ptr %7(ptr noundef nonnull align 8 dereferenceable(88) %3)
  br label %9

9:                                                ; preds = %4, %1
  %10 = getelementptr inbounds nuw i8, ptr %0, i64 560
  %11 = load ptr, ptr %10, align 16, !tbaa !221
  %.not1 = icmp eq ptr %11, null
  br i1 %.not1, label %17, label %12

12:                                               ; preds = %9
  %13 = load ptr, ptr %11, align 16, !tbaa !4
  %14 = getelementptr inbounds nuw i8, ptr %13, i64 32
  %15 = load ptr, ptr %14, align 8
  %16 = tail call noundef zeroext i1 %15(ptr noundef nonnull align 16 dereferenceable(368) %11)
  br label %17

17:                                               ; preds = %12, %9
  ret void
}